; Function Attrs: nounwind sspstrong uwtable
define hidden i32 @FLAC__lpc_max_residual_bps(i32 noundef %0, ptr noalias noundef readonly captures(none) %1, i32 noundef %2, i32 noundef %3) local_unnamed_addr #3 {
  %.not.i = icmp eq i32 %2, 0
  br i1 %.not.i, label %FLAC__lpc_max_prediction_value_before_shift.exit, label %.lr.ph.preheader.i

.lr.ph.preheader.i:                               ; preds = %4
  %wide.trip.count.i = zext i32 %2 to i64
  br label %.lr.ph.i

.lr.ph.i:                                         ; preds = %.lr.ph.i, %.lr.ph.preheader.i
  %indvars.iv.i = phi i64 [ 0, %.lr.ph.preheader.i ], [ %indvars.iv.next.i, %.lr.ph.i ]
  %.089.i = phi i32 [ 0, %.lr.ph.preheader.i ], [ %8, %.lr.ph.i ]
  %5 = getelementptr inbounds nuw i32, ptr %1, i64 %indvars.iv.i
  %6 = load i32, ptr %5, align 4, !tbaa !3, !alias.scope !75
  %7 = tail call i32 @llvm.abs.i32(i32 %6, i1 true)
  %8 = add i32 %7, %.089.i
  %indvars.iv.next.i = add nuw nsw i64 %indvars.iv.i, 1
  %exitcond.not.i = icmp eq i64 %indvars.iv.next.i, %wide.trip.count.i
  br i1 %exitcond.not.i, label %._crit_edge.loopexit.i, label %.lr.ph.i, !llvm.loop !71

._crit_edge.loopexit.i:                           ; preds = %.lr.ph.i
  %9 = zext i32 %8 to i64
  br label %FLAC__lpc_max_prediction_value_before_shift.exit

FLAC__lpc_max_prediction_value_before_shift.exit: ; preds = %4, %._crit_edge.loopexit.i
  %.08.lcssa.i = phi i64 [ 0, %4 ], [ %9, %._crit_edge.loopexit.i ]
  %10 = add i32 %0, -1
  %11 = zext nneg i32 %10 to i64
  %12 = shl nuw i64 1, %11
  %13 = shl i64 %.08.lcssa.i, %11
  %14 = sub nsw i64 0, %13
  %15 = zext nneg i32 %3 to i64
  %16 = ashr i64 %14, %15
  %17 = sub i64 %12, %16
  %18 = tail call i32 @FLAC__bitmath_silog2(i64 noundef %17) #13
  ret i32 %18
}